; ModuleID = 'bench/icu/original/parsepos.ll'
source_filename = "bench/icu/original/parsepos.ll"
target datalayout = "e-m:e-p270:32:32-p271:32:32-p272:64:64-i64:64-i128:128-f80:128-n8:16:32:64-S128"
target triple = "x86_64-unknown-linux-gnu"

@_ZZN6icu_7513ParsePosition16getStaticClassIDEvE7classID = internal global i8 0, align 1
@_ZTVN6icu_7513ParsePositionE = unnamed_addr constant { [5 x ptr] } { [5 x ptr] [ptr null, ptr @_ZTIN6icu_7513ParsePositionE, ptr @_ZN6icu_7513ParsePositionD1Ev, ptr @_ZN6icu_7513ParsePositionD0Ev, ptr @_ZNK6icu_7513ParsePosition17getDynamicClassIDEv] }, align 8
@_ZTVN10__cxxabiv120__si_class_type_infoE = external global [0 x ptr]
@_ZTSN6icu_7513ParsePositionE = constant [25 x i8] c"N6icu_7513ParsePositionE\00", align 1
@_ZTIN6icu_757UObjectE = external constant ptr
@_ZTIN6icu_7513ParsePositionE = constant { ptr, ptr, ptr } { ptr getelementptr inbounds (ptr, ptr @_ZTVN10__cxxabiv120__si_class_type_infoE, i64 2), ptr @_ZTSN6icu_7513ParsePositionE, ptr @_ZTIN6icu_757UObjectE }, align 8

@_ZN6icu_7513ParsePositionD1Ev = unnamed_addr alias void (ptr), ptr @_ZN6icu_7513ParsePositionD2Ev

; Function Attrs: mustprogress nofree norecurse nosync nounwind willreturn memory(none) uwtable
define noundef nonnull ptr @_ZN6icu_7513ParsePosition16getStaticClassIDEv() local_unnamed_addr #0 align 2 {
entry:
  ret ptr @_ZZN6icu_7513ParsePosition16getStaticClassIDEvE7classID
}

; Function Attrs: mustprogress nofree norecurse nosync nounwind willreturn memory(none) uwtable
define noundef nonnull ptr @_ZNK6icu_7513ParsePosition17getDynamicClassIDEv(ptr nocapture nonnull readnone align 8 %this) unnamed_addr #0 align 2 {
entry:
  ret ptr @_ZZN6icu_7513ParsePosition16getStaticClassIDEvE7classID
}

; Function Attrs: mustprogress nounwind uwtable
define void @_ZN6icu_7513ParsePositionD2Ev(ptr noundef nonnull align 8 dereferenceable(16) %this) unnamed_addr #1 align 2 {
entry:
  tail call void @_ZN6icu_757UObjectD2Ev(ptr noundef nonnull align 8 dereferenceable(8) %this) #3
  ret void
}

; Function Attrs: nounwind
declare void @_ZN6icu_757UObjectD2Ev(ptr noundef nonnull align 8 dereferenceable(8)) unnamed_addr #2

; Function Attrs: mustprogress nounwind uwtable
define void @_ZN6icu_7513ParsePositionD0Ev(ptr noundef nonnull align 8 dereferenceable(16) %this) unnamed_addr #1 align 2 {
entry:
  tail call void @_ZN6icu_7513ParsePositionD1Ev(ptr noundef nonnull align 8 dereferenceable(16) %this) #3
  tail call void @_ZN6icu_757UMemorydlEPv(ptr noundef nonnull %this) #3
  ret void
}

; Function Attrs: nounwind
declare void @_ZN6icu_757UMemorydlEPv(ptr noundef) local_unnamed_addr #2

; Function Attrs: mustprogress nounwind uwtable
define noundef ptr @_ZNK6icu_7513ParsePosition5cloneEv(ptr nocapture noundef nonnull readonly align 8 dereferenceable(16) %this) local_unnamed_addr #1 align 2 personality ptr @__gxx_personality_v0 {
entry:
  %call = tail call noundef ptr @_ZN6icu_757UMemorynwEm(i64 noundef 16) #3
  %new.isnull = icmp eq ptr %call, null
  br i1 %new.isnull, label %new.cont, label %new.notnull

new.notnull:                                      ; preds = %entry
  store ptr getelementptr inbounds ({ [5 x ptr] }, ptr @_ZTVN6icu_7513ParsePositionE, i64 0, i32 0, i64 2), ptr %call, align 8
  %index.i = getelementptr inbounds i8, ptr %call, i64 8
  %index2.i = getelementptr inbounds i8, ptr %this, i64 8
  %0 = load i32, ptr %index2.i, align 8
  store i32 %0, ptr %index.i, align 8
  %errorIndex.i = getelementptr inbounds i8, ptr %call, i64 12
  %errorIndex3.i = getelementptr inbounds i8, ptr %this, i64 12
  %1 = load i32, ptr %errorIndex3.i, align 4
  store i32 %1, ptr %errorIndex.i, align 4
  br label %new.cont

new.cont:                                         ; preds = %new.notnull, %entry
  ret ptr %call
}

; Function Attrs: nounwind
declare noundef ptr @_ZN6icu_757UMemorynwEm(i64 noundef) local_unnamed_addr #2

declare i32 @__gxx_personality_v0(...)


!llvm.module.flags = !{!0, !1, !2, !3}

!0 = !{i32 1, !"wchar_size", i32 4}
!1 = !{i32 8, !"PIC Level", i32 2}
!2 = !{i32 7, !"uwtable", i32 2}
!3 = !{i32 7, !"frame-pointer", i32 2}
